target datalayout = "e-m:e-p270:32:32-p271:32:32-p272:64:64-i64:64-i128:128-f80:128-n8:16:32:64-S128"
target triple = "x86_64-pc-linux-gnu"

%union.pthread_mutex_t = type { %struct.__pthread_mutex_s }
%struct.__pthread_mutex_s = type { i32, i32, i32, i32, i32, i16, i16, %struct.__pthread_internal_list }
%struct.__pthread_internal_list = type { ptr, ptr }
%struct.thread_stats = type { %union.pthread_mutex_t, i64, i64, i64, i64, i64, i64, i64, i64, i64, i64, i64, i64, i64, i64, i64, i64, i64, i64, i64, i64, i64, i64, i64, i64, i64, i64, i64, i64, i64, i64, [64 x %struct.slab_stats], [256 x i64], i64, i64, i64 }
%struct.slab_stats = type { i64, i64, i64, i64, i64, i64, i64, i64 }

; Function Attrs: nounwind uwtable
define dso_local void @slab_stats_aggregate(ptr noundef %0, ptr noundef %1) #0 {
  %3 = alloca ptr, align 8
  %4 = alloca ptr, align 8
  %5 = alloca i32, align 4
  store ptr %0, ptr %3, align 8, !tbaa !136
  store ptr %1, ptr %4, align 8, !tbaa !190
  call void @llvm.lifetime.start.p0(i64 4, ptr %5) #8
  %6 = load ptr, ptr %4, align 8, !tbaa !190
  call void @llvm.memset.p0.i64(ptr align 8 %6, i8 0, i64 64, i1 false)
  store i32 0, ptr %5, align 4, !tbaa !4
  br label %7

7:                                                ; preds = %99, %2
  %8 = load i32, ptr %5, align 4, !tbaa !4
  %9 = icmp slt i32 %8, 64
  br i1 %9, label %10, label %102

10:                                               ; preds = %7
  %11 = load ptr, ptr %3, align 8, !tbaa !136
  %12 = getelementptr inbounds nuw %struct.thread_stats, ptr %11, i32 0, i32 31
  %13 = load i32, ptr %5, align 4, !tbaa !4
  %14 = sext i32 %13 to i64
  %15 = getelementptr inbounds [64 x %struct.slab_stats], ptr %12, i64 0, i64 %14
  %16 = getelementptr inbounds nuw %struct.slab_stats, ptr %15, i32 0, i32 0
  %17 = load i64, ptr %16, align 8, !tbaa !168
  %18 = load ptr, ptr %4, align 8, !tbaa !190
  %19 = getelementptr inbounds nuw %struct.slab_stats, ptr %18, i32 0, i32 0
  %20 = load i64, ptr %19, align 8, !tbaa !168
  %21 = add i64 %20, %17
  store i64 %21, ptr %19, align 8, !tbaa !168
  %22 = load ptr, ptr %3, align 8, !tbaa !136
  %23 = getelementptr inbounds nuw %struct.thread_stats, ptr %22, i32 0, i32 31
  %24 = load i32, ptr %5, align 4, !tbaa !4
  %25 = sext i32 %24 to i64
  %26 = getelementptr inbounds [64 x %struct.slab_stats], ptr %23, i64 0, i64 %25
  %27 = getelementptr inbounds nuw %struct.slab_stats, ptr %26, i32 0, i32 1
  %28 = load i64, ptr %27, align 8, !tbaa !170
  %29 = load ptr, ptr %4, align 8, !tbaa !190
  %30 = getelementptr inbounds nuw %struct.slab_stats, ptr %29, i32 0, i32 1
  %31 = load i64, ptr %30, align 8, !tbaa !170
  %32 = add i64 %31, %28
  store i64 %32, ptr %30, align 8, !tbaa !170
  %33 = load ptr, ptr %3, align 8, !tbaa !136
  %34 = getelementptr inbounds nuw %struct.thread_stats, ptr %33, i32 0, i32 31
  %35 = load i32, ptr %5, align 4, !tbaa !4
  %36 = sext i32 %35 to i64
  %37 = getelementptr inbounds [64 x %struct.slab_stats], ptr %34, i64 0, i64 %36
  %38 = getelementptr inbounds nuw %struct.slab_stats, ptr %37, i32 0, i32 2
  %39 = load i64, ptr %38, align 8, !tbaa !171
  %40 = load ptr, ptr %4, align 8, !tbaa !190
  %41 = getelementptr inbounds nuw %struct.slab_stats, ptr %40, i32 0, i32 2
  %42 = load i64, ptr %41, align 8, !tbaa !171
  %43 = add i64 %42, %39
  store i64 %43, ptr %41, align 8, !tbaa !171
  %44 = load ptr, ptr %3, align 8, !tbaa !136
  %45 = getelementptr inbounds nuw %struct.thread_stats, ptr %44, i32 0, i32 31
  %46 = load i32, ptr %5, align 4, !tbaa !4
  %47 = sext i32 %46 to i64
  %48 = getelementptr inbounds [64 x %struct.slab_stats], ptr %45, i64 0, i64 %47
  %49 = getelementptr inbounds nuw %struct.slab_stats, ptr %48, i32 0, i32 3
  %50 = load i64, ptr %49, align 8, !tbaa !172
  %51 = load ptr, ptr %4, align 8, !tbaa !190
  %52 = getelementptr inbounds nuw %struct.slab_stats, ptr %51, i32 0, i32 3
  %53 = load i64, ptr %52, align 8, !tbaa !172
  %54 = add i64 %53, %50
  store i64 %54, ptr %52, align 8, !tbaa !172
  %55 = load ptr, ptr %3, align 8, !tbaa !136
  %56 = getelementptr inbounds nuw %struct.thread_stats, ptr %55, i32 0, i32 31
  %57 = load i32, ptr %5, align 4, !tbaa !4
  %58 = sext i32 %57 to i64
  %59 = getelementptr inbounds [64 x %struct.slab_stats], ptr %56, i64 0, i64 %58
  %60 = getelementptr inbounds nuw %struct.slab_stats, ptr %59, i32 0, i32 4
  %61 = load i64, ptr %60, align 8, !tbaa !173
  %62 = load ptr, ptr %4, align 8, !tbaa !190
  %63 = getelementptr inbounds nuw %struct.slab_stats, ptr %62, i32 0, i32 4
  %64 = load i64, ptr %63, align 8, !tbaa !173
  %65 = add i64 %64, %61
  store i64 %65, ptr %63, align 8, !tbaa !173
  %66 = load ptr, ptr %3, align 8, !tbaa !136
  %67 = getelementptr inbounds nuw %struct.thread_stats, ptr %66, i32 0, i32 31
  %68 = load i32, ptr %5, align 4, !tbaa !4
  %69 = sext i32 %68 to i64
  %70 = getelementptr inbounds [64 x %struct.slab_stats], ptr %67, i64 0, i64 %69
  %71 = getelementptr inbounds nuw %struct.slab_stats, ptr %70, i32 0, i32 5
  %72 = load i64, ptr %71, align 8, !tbaa !174
  %73 = load ptr, ptr %4, align 8, !tbaa !190
  %74 = getelementptr inbounds nuw %struct.slab_stats, ptr %73, i32 0, i32 5
  %75 = load i64, ptr %74, align 8, !tbaa !174
  %76 = add i64 %75, %72
  store i64 %76, ptr %74, align 8, !tbaa !174
  %77 = load ptr, ptr %3, align 8, !tbaa !136
  %78 = getelementptr inbounds nuw %struct.thread_stats, ptr %77, i32 0, i32 31
  %79 = load i32, ptr %5, align 4, !tbaa !4
  %80 = sext i32 %79 to i64
  %81 = getelementptr inbounds [64 x %struct.slab_stats], ptr %78, i64 0, i64 %80
  %82 = getelementptr inbounds nuw %struct.slab_stats, ptr %81, i32 0, i32 6
  %83 = load i64, ptr %82, align 8, !tbaa !175
  %84 = load ptr, ptr %4, align 8, !tbaa !190
  %85 = getelementptr inbounds nuw %struct.slab_stats, ptr %84, i32 0, i32 6
  %86 = load i64, ptr %85, align 8, !tbaa !175
  %87 = add i64 %86, %83
  store i64 %87, ptr %85, align 8, !tbaa !175
  %88 = load ptr, ptr %3, align 8, !tbaa !136
  %89 = getelementptr inbounds nuw %struct.thread_stats, ptr %88, i32 0, i32 31
  %90 = load i32, ptr %5, align 4, !tbaa !4
  %91 = sext i32 %90 to i64
  %92 = getelementptr inbounds [64 x %struct.slab_stats], ptr %89, i64 0, i64 %91
  %93 = getelementptr inbounds nuw %struct.slab_stats, ptr %92, i32 0, i32 7
  %94 = load i64, ptr %93, align 8, !tbaa !176
  %95 = load ptr, ptr %4, align 8, !tbaa !190
  %96 = getelementptr inbounds nuw %struct.slab_stats, ptr %95, i32 0, i32 7
  %97 = load i64, ptr %96, align 8, !tbaa !176
  %98 = add i64 %97, %94
  store i64 %98, ptr %96, align 8, !tbaa !176
  br label %99

99:                                               ; preds = %10
  %100 = load i32, ptr %5, align 4, !tbaa !4
  %101 = add nsw i32 %100, 1
  store i32 %101, ptr %5, align 4, !tbaa !4
  br label %7, !llvm.loop !192

102:                                              ; preds = %7
  call void @llvm.lifetime.end.p0(i64 4, ptr %5) #8
  ret void
}