; Function Attrs: nofree norecurse nosync nounwind memory(argmem: readwrite) uwtable
define dso_local void @slab_stats_aggregate(ptr noundef readonly captures(none) %0, ptr noundef writeonly captures(none) initializes((0, 64)) %1) local_unnamed_addr #8 {
  tail call void @llvm.memset.p0.i64(ptr noundef nonnull align 8 dereferenceable(64) %1, i8 0, i64 64, i1 false)
  %3 = getelementptr inbounds nuw i8, ptr %0, i64 280
  %4 = getelementptr inbounds nuw i8, ptr %1, i64 8
  %5 = getelementptr inbounds nuw i8, ptr %1, i64 16
  %6 = getelementptr inbounds nuw i8, ptr %1, i64 24
  %7 = getelementptr inbounds nuw i8, ptr %1, i64 32
  %8 = getelementptr inbounds nuw i8, ptr %1, i64 40
  %9 = getelementptr inbounds nuw i8, ptr %1, i64 48
  %10 = getelementptr inbounds nuw i8, ptr %1, i64 56
  br label %11

11:                                               ; preds = %2, %11
  %indvars.iv = phi i64 [ 0, %2 ], [ %indvars.iv.next, %11 ]
  %12 = phi i64 [ 0, %2 ], [ %22, %11 ]
  %13 = phi i64 [ 0, %2 ], [ %25, %11 ]
  %14 = phi i64 [ 0, %2 ], [ %28, %11 ]
  %15 = phi i64 [ 0, %2 ], [ %31, %11 ]
  %16 = phi i64 [ 0, %2 ], [ %34, %11 ]
  %17 = phi i64 [ 0, %2 ], [ %37, %11 ]
  %18 = phi i64 [ 0, %2 ], [ %40, %11 ]
  %19 = phi i64 [ 0, %2 ], [ %43, %11 ]
  %20 = getelementptr inbounds nuw [64 x %struct.slab_stats], ptr %3, i64 0, i64 %indvars.iv
  %21 = load i64, ptr %20, align 8, !tbaa !159
  %22 = add i64 %12, %21
  store i64 %22, ptr %1, align 8, !tbaa !159
  %23 = getelementptr inbounds nuw i8, ptr %20, i64 8
  %24 = load i64, ptr %23, align 8, !tbaa !161
  %25 = add i64 %13, %24
  store i64 %25, ptr %4, align 8, !tbaa !161
  %26 = getelementptr inbounds nuw i8, ptr %20, i64 16
  %27 = load i64, ptr %26, align 8, !tbaa !162
  %28 = add i64 %14, %27
  store i64 %28, ptr %5, align 8, !tbaa !162
  %29 = getelementptr inbounds nuw i8, ptr %20, i64 24
  %30 = load i64, ptr %29, align 8, !tbaa !163
  %31 = add i64 %15, %30
  store i64 %31, ptr %6, align 8, !tbaa !163
  %32 = getelementptr inbounds nuw i8, ptr %20, i64 32
  %33 = load i64, ptr %32, align 8, !tbaa !164
  %34 = add i64 %16, %33
  store i64 %34, ptr %7, align 8, !tbaa !164
  %35 = getelementptr inbounds nuw i8, ptr %20, i64 40
  %36 = load i64, ptr %35, align 8, !tbaa !165
  %37 = add i64 %17, %36
  store i64 %37, ptr %8, align 8, !tbaa !165
  %38 = getelementptr inbounds nuw i8, ptr %20, i64 48
  %39 = load i64, ptr %38, align 8, !tbaa !166
  %40 = add i64 %18, %39
  store i64 %40, ptr %9, align 8, !tbaa !166
  %41 = getelementptr inbounds nuw i8, ptr %20, i64 56
  %42 = load i64, ptr %41, align 8, !tbaa !167
  %43 = add i64 %19, %42
  store i64 %43, ptr %10, align 8, !tbaa !167
  %indvars.iv.next = add nuw nsw i64 %indvars.iv, 1
  %exitcond.not = icmp eq i64 %indvars.iv.next, 64
  br i1 %exitcond.not, label %44, label %11, !llvm.loop !181

44:                                               ; preds = %11
  ret void
}